target datalayout = "e-m:e-p270:32:32-p271:32:32-p272:64:64-i64:64-i128:128-f80:128-n8:16:32:64-S128"
target triple = "x86_64-pc-linux-gnu"

%"class.datalog::ddnf_core" = type { ptr }
%"class.datalog::ddnf_mgr" = type { ptr, %class.ref_vector, i8, %class.tbv_manager, %"struct.datalog::ddnf_node::hash", %"struct.datalog::ddnf_node::eq", %class.ptr_hashtable, %class.svector, %"struct.datalog::ddnf_mgr::stats" }
%class.ref_vector = type { %class.ref_vector_core }
%class.ref_vector_core = type { %class.ref_manager_wrapper, %class.ptr_vector }
%class.ref_manager_wrapper = type { ptr }
%class.ptr_vector = type { %class.vector }
%class.vector = type { ptr }
%class.tbv_manager = type { %class.fixed_bit_vector_manager, %class.ptr_vector.0 }
%class.fixed_bit_vector_manager = type <{ %class.small_object_allocator, i32, i32, i32, i32, %class.fixed_bit_vector, [4 x i8] }>
%class.small_object_allocator = type { [32 x ptr], [32 x ptr], i64 }
%class.fixed_bit_vector = type { [1 x i32] }
%class.ptr_vector.0 = type { %class.vector.1 }
%class.vector.1 = type { ptr }
%"struct.datalog::ddnf_node::hash" = type { ptr }
%"struct.datalog::ddnf_node::eq" = type { ptr }
%class.ptr_hashtable = type { %class.core_hashtable.base, [4 x i8] }
%class.core_hashtable.base = type <{ %"struct.datalog::ddnf_node::hash", %"struct.datalog::ddnf_node::eq", ptr, i32, i32, i32 }>
%class.svector = type { %class.vector.2 }
%class.vector.2 = type { ptr }
%"struct.datalog::ddnf_mgr::stats" = type { i32, i32 }

; Function Attrs: mustprogress nounwind uwtable
define linkonce_odr hidden noundef i32 @_ZNK6vectorIPN7datalog9ddnf_nodeELb0EjE4sizeEv(ptr noundef nonnull align 8 dereferenceable(8) %0) #5 comdat align 2 {
  %2 = alloca i32, align 4
  %3 = alloca ptr, align 8
  store ptr %0, ptr %3, align 8, !tbaa !335
  %4 = load ptr, ptr %3, align 8
  %5 = getelementptr inbounds nuw %class.vector, ptr %4, i32 0, i32 0
  %6 = load ptr, ptr %5, align 8, !tbaa !337
  %7 = icmp eq ptr %6, null
  br i1 %7, label %8, label %9

8:                                                ; preds = %1
  store i32 0, ptr %2, align 4
  br label %14

9:                                                ; preds = %1
  %10 = getelementptr inbounds nuw %class.vector, ptr %4, i32 0, i32 0
  %11 = load ptr, ptr %10, align 8, !tbaa !337
  %12 = getelementptr inbounds i32, ptr %11, i64 -1
  %13 = load i32, ptr %12, align 4, !tbaa !8
  store i32 %13, ptr %2, align 4
  br label %14

14:                                               ; preds = %9, %8
  %15 = load i32, ptr %2, align 4
  ret i32 %15
}

; Function Attrs: mustprogress nounwind uwtable
define linkonce_odr hidden noundef i32 @_ZNK15ref_vector_coreIN7datalog9ddnf_nodeE19ref_manager_wrapperIS1_NS0_8ddnf_mgrEEE4sizeEv(ptr noundef nonnull align 8 dereferenceable(16) %0) #5 comdat align 2 {
  %2 = alloca ptr, align 8
  store ptr %0, ptr %2, align 8, !tbaa !64
  %3 = load ptr, ptr %2, align 8
  %4 = getelementptr inbounds nuw %class.ref_vector_core, ptr %3, i32 0, i32 1
  %5 = call noundef i32 @_ZNK6vectorIPN7datalog9ddnf_nodeELb0EjE4sizeEv(ptr noundef nonnull align 8 dereferenceable(8) %4)
  ret i32 %5
}

; Function Attrs: mustprogress nounwind uwtable
define linkonce_odr hidden noundef i32 @_ZNK7datalog8ddnf_mgr4sizeEv(ptr noundef nonnull align 8 dereferenceable(656) %0) #5 comdat align 2 {
  %2 = alloca ptr, align 8
  store ptr %0, ptr %2, align 8, !tbaa !13
  %3 = load ptr, ptr %2, align 8
  %4 = getelementptr inbounds nuw %"class.datalog::ddnf_mgr", ptr %3, i32 0, i32 1
  %5 = call noundef i32 @_ZNK15ref_vector_coreIN7datalog9ddnf_nodeE19ref_manager_wrapperIS1_NS0_8ddnf_mgrEEE4sizeEv(ptr noundef nonnull align 8 dereferenceable(16) %4)
  ret i32 %5
}

; Function Attrs: mustprogress uwtable
define hidden noundef i32 @_ZNK7datalog9ddnf_core4sizeEv(ptr noundef nonnull align 8 dereferenceable(8) %0) #4 align 2 {
  %2 = alloca ptr, align 8
  store ptr %0, ptr %2, align 8, !tbaa !3
  %3 = load ptr, ptr %2, align 8
  %4 = getelementptr inbounds nuw %"class.datalog::ddnf_core", ptr %3, i32 0, i32 0
  %5 = load ptr, ptr %4, align 8, !tbaa !10
  %6 = call noundef i32 @_ZNK7datalog8ddnf_mgr4sizeEv(ptr noundef nonnull align 8 dereferenceable(656) %5)
  ret i32 %6
}